(dp1
S'naturalistic movie'
p2
(lp3
(lp4
S'070314_c4'
p5
aS'070314_c5'
p6
aa(lp7
S'070314_c2'
p8
aS'070314_c3'
p9
aa(lp10
S'072215_c1'
p11
aS'072215_c2'
p12
aa(lp13
S'072215_c6'
p14
aS'072215_c7'
p15
aS'072215_c8'
p16
aa(lp17
S'072215_c3'
p18
aS'072215_c5'
p19
aasS'gray screen'
p20
(lp21
(lp22
S'072315_c1'
p23
aS'072315_c2'
p24
aa(lp25
S'072715_c4'
p26
aS'072715_c5'
p27
aasS'phase-shuffled motion-enhanced movie'
p28
(lp29
(lp30
S'071415_c1'
p31
aS'071415_c2'
p32
aS'071415_c3'
p33
aa(lp34
S'072115_c1'
p35
aS'072115_c2'
p36
aasS'motion-enhanced movie'
p37
(lp38
(lp39
S'021715_c1'
p40
aS'021715_c2'
p41
aa(lp42
S'021915_c1'
p43
aS'021915_c2'
p44
aS'021915_c3'
p45
aa(lp46
S'022515_c1'
p47
aS'022515_c2'
p48
aa(lp49
S'030415_c2'
p50
aS'030415_c3'
p51
aasS'sub-field red flash'
p52
(lp53
(lp54
S'082813_c7'
p55
aS'082813_c8'
p56
aa(lp57
S'082813_c1'
p58
aS'082813_c2'
p59
aa(lp60
S'082813_c3'
p61
aS'082813_c4'
p62
aasS'whole-field red flash'
p63
(lp64
(lp65
S'071515_c3'
p66
aS'071515_c4'
p67
aS'071515_c5'
p68
aa(lp69
S'071515_c8'
p70
aS'071515_c9'
p71
aS'071515_c10'
p72
aa(lp73
S'071515_c6'
p74
aS'071515_c7'
p75
aa(lp76
S'072715_c1'
p77
aS'072715_c3'
p78
aa(lp79
S'081513_c1'
p80
aS'081513_c2'
p81
aa(lp82
S'021914_c1'
p83
aS'021914_c2'
p84
aa(lp85
S'052814_c1'
p86
aS'052814_c2'
p87
aa(lp88
S'052814_c8'
p89
aS'052814_c9'
p90
aa(lp91
S'071714_c3'
p92
aS'071714_c4'
p93
aas.