(dp1
S'naturalistic movie'
p2
(lp3
(lp4
S'070314_c4'
p5
aS'070314_c5'
p6
aS'070314_LFP3'
p7
aa(lp8
S'070314_c2'
p9
aS'070314_c3'
p10
aS'070314_LFP2'
p11
aa(lp12
S'072215_c1'
p13
aS'072215_c2'
p14
aa(lp15
S'072215_c6'
p16
aS'072215_c7'
p17
aS'072215_c8'
p18
aa(lp19
S'072215_c3'
p20
aS'072215_c5'
p21
aasS'gray screen'
p22
(lp23
(lp24
S'072315_c1'
p25
aS'072315_c2'
p26
aa(lp27
S'072715_c4'
p28
aS'072715_c5'
p29
aS'072715_LFP2'
p30
aasS'phase-shuffled motion-enhanced movie'
p31
(lp32
(lp33
S'071415_c1'
p34
aS'071415_c2'
p35
aS'071415_c3'
p36
aa(lp37
S'072115_c1'
p38
aS'072115_c2'
p39
aasS'motion-enhanced movie'
p40
(lp41
(lp42
S'021715_c1'
p43
aS'021715_c2'
p44
aS'021715_LFP1'
p45
aa(lp46
S'021915_c1'
p47
aS'021915_c2'
p48
aS'021915_c3'
p49
aa(lp50
S'022515_c1'
p51
aS'022515_c2'
p52
aS'022515_LFP1'
p53
aa(lp54
S'030415_c2'
p55
aS'030415_c3'
p56
aS'030415_LFP1'
p57
aasS'sub-field red flash'
p58
(lp59
(lp60
S'082813_c7'
p61
aS'082813_c8'
p62
aS'082813_LFP4'
p63
aa(lp64
S'082813_c1'
p65
aS'082813_c2'
p66
aS'082813_LFP1'
p67
aa(lp68
S'082813_c3'
p69
aS'082813_c4'
p70
aS'082813_LFP2'
p71
aasS'whole-field red flash'
p72
(lp73
(lp74
S'071515_c3'
p75
aS'071515_c4'
p76
aS'071515_c5'
p77
aa(lp78
S'071515_c8'
p79
aS'071515_c9'
p80
aS'071515_c10'
p81
aa(lp82
S'071515_c6'
p83
aS'071515_c7'
p84
aa(lp85
S'072715_c1'
p86
aS'072715_c3'
p87
aa(lp88
S'081513_c1'
p89
aS'081513_c2'
p90
aS'081513_LFP1'
p91
aa(lp92
S'021914_c1'
p93
aS'021914_c2'
p94
aS'021914_LFP1'
p95
aa(lp96
S'052814_c1'
p97
aS'052814_c2'
p98
aa(lp99
S'052814_c8'
p100
aS'052814_c9'
p101
aa(lp102
S'071714_c3'
p103
aS'071714_c4'
p104
aas.